Certificate:
    Data:
        Version: 3 (0x2)
        Serial Number: 431 (0x1af)
    Signature Algorithm: sha1WithRSAEncryption
        Issuer: C=RU, ST=Some-State, O=Atom, CN=master.staffcop.su/emailAddress=master@staffcop.su
        Validity
            Not Before: Feb  5 07:19:19 2015 GMT
            Not After : Feb 20 07:19:18 2015 GMT
        Subject: O=trial_324adf4c370a4aec, CN=172.31.2.131/title=5
        Subject Public Key Info:
            Public Key Algorithm: rsaEncryption
                Public-Key: (2048 bit)
                Modulus:
                    00:f8:ba:75:63:3c:37:3a:4a:c7:5c:e3:b0:57:36:
                    e0:bb:56:3e:af:09:69:6a:a1:77:f0:1d:43:db:ff:
                    ad:7d:c8:c6:b5:bd:e5:ac:c4:9d:3b:ad:f9:8a:60:
                    eb:db:4b:97:c5:de:f6:c0:49:40:a2:ff:74:0e:0b:
                    8d:d7:c0:b2:96:91:3f:6d:b7:12:7b:0d:eb:b5:3c:
                    ee:03:e9:9c:cc:e7:75:9a:ea:6a:6f:35:92:20:fb:
                    15:2b:18:a3:b1:65:18:4c:1b:97:47:bf:69:ac:12:
                    d9:5a:39:44:64:94:86:59:4b:b2:54:ea:25:58:5c:
                    95:b7:4e:ee:40:89:72:9e:e1:44:fa:9f:39:db:bf:
                    e1:3f:c4:fd:75:a1:b5:7b:0f:23:e9:c4:54:a0:e0:
                    bf:53:34:f1:8e:06:e8:50:35:11:3e:a1:b2:94:9f:
                    c3:06:fb:13:19:92:a5:38:54:3d:23:6d:4e:16:a9:
                    a6:61:22:8c:01:4b:a4:48:e5:58:2d:a3:5a:f7:4d:
                    94:eb:d5:e4:f8:d7:6c:1e:f8:2a:20:83:4a:96:93:
                    6b:98:86:16:10:23:fd:10:fc:0e:94:4a:5f:79:70:
                    df:22:bf:6e:0f:e8:38:7e:43:52:44:89:5f:85:9c:
                    34:9f:a4:fa:42:d7:10:c0:38:d8:51:79:c1:6a:df:
                    7f:79
                Exponent: 65537 (0x10001)
        X509v3 extensions:
            X509v3 Subject Key Identifier: 
                99:FE:CE:6D:90:DD:7B:62:98:69:16:24:C5:44:04:B3:4B:DD:A2:E0
            X509v3 Authority Key Identifier: 
                keyid:AC:A5:68:97:AE:FD:21:93:0D:A9:C6:8C:C4:50:3C:61:D4:1C:50:D8
                DirName:/C=RU/ST=Some-State/O=Atom/CN=master.staffcop.su/emailAddress=master@staffcop.su
                serial:8C:CD:F3:80:BC:CC:7D:0D

            X509v3 Basic Constraints: 
                CA:TRUE
    Signature Algorithm: sha1WithRSAEncryption
         a0:05:60:83:82:b8:e1:df:73:1b:1d:48:bc:62:67:4b:56:f6:
         b3:46:0b:c8:8e:f0:d3:73:6e:51:56:3f:44:14:67:96:8e:52:
         78:be:a8:69:63:00:1b:ca:f1:ef:4b:1d:2f:e9:23:c9:9e:4b:
         f0:c2:97:39:19:21:e5:81:cc:59:a9:ee:6a:7a:85:0e:b9:d6:
         5e:e3:15:ce:39:a9:18:26:20:05:e5:19:12:c5:cd:62:ee:a1:
         0e:6a:a2:5c:95:af:6c:75:21:75:e0:b0:0d:0e:f2:55:b1:8f:
         93:af:d8:80:0d:08:0c:fa:49:ad:3c:9a:a3:d3:9b:0d:db:70:
         e4:28:4b:73:53:5e:12:03:52:d8:e2:9b:9f:02:34:81:97:42:
         77:45:ff:8e:2e:cc:93:6d:45:f1:a1:dd:fc:7c:2a:8a:d8:16:
         b6:e9:55:14:9e:c7:bb:4a:ed:a3:e1:32:89:81:2e:34:6b:82:
         ab:40:fe:d7:21:e5:4b:18:d1:7a:8a:a7:2c:79:fd:2a:50:02:
         ab:be:4f:a1:3c:d7:e9:56:40:b5:c8:a8:eb:03:bc:db:ef:96:
         1c:43:f9:75:bd:c6:75:39:7c:92:a2:fc:fe:89:b2:16:6e:0d:
         62:73:d3:b0:ef:cb:30:3c:c2:8e:27:11:cf:a9:04:d5:a9:af:
         a2:ec:1b:9f:3e:ed:39:dd:3f:9e:4e:35:80:77:82:f3:4a:1e:
         15:d0:10:3c:b9:a0:12:2e:b7:fe:0f:08:b2:73:c9:2f:15:5e:
         59:82:02:78:47:99:a9:92:ba:16:d4:a7:20:85:2f:2b:f2:59:
         48:57:34:10:cb:c5:4e:88:d4:e0:59:dc:4e:fb:31:96:b3:d1:
         8f:5d:fe:d7:f5:5a:aa:dd:c9:6d:db:cf:41:19:25:4d:32:57:
         91:88:15:99:c5:5d:13:49:c5:aa:f7:4a:82:07:47:d4:1f:3a:
         1d:3c:fb:8a:8f:9a:b4:90:4e:10:1c:3e:02:c0:9a:ef:1b:c4:
         a7:7a:47:12:b3:e5:58:23:bc:90:77:58:2e:82:1c:30:15:66:
         d4:cc:b6:51:19:57:64:ae:94:e5:7c:06:d5:96:7a:3f:d5:a1:
         67:51:24:34:64:c8:16:a1:3e:f3:d5:24:30:56:43:a3:5c:4c:
         99:93:a2:d8:48:23:34:a2:8f:45:b6:ba:f5:bf:34:24:38:d3:
         14:6d:63:14:b9:0c:eb:6a:cb:6b:41:0e:6f:eb:a6:1b:e5:c5:
         c1:98:23:6f:92:c9:12:52:35:f2:ce:82:c6:6a:d4:97:66:26:
         5c:9f:6a:26:1b:62:c9:73:30:9a:e8:34:11:1b:70:17:05:54:
         c3:f8:b9:67:33:e0:f3:16

-----BEGIN CERTIFICATE-----
MIIFCjCCAvKgAwIBAgICAa8wDQYJKoZIhvcNAQEFBQAwcTELMAkGA1UEBhMCUlUx
EzARBgNVBAgMClNvbWUtU3RhdGUxDTALBgNVBAoMBEF0b20xGzAZBgNVBAMMEm1h
c3Rlci5zdGFmZmNvcC5zdTEhMB8GCSqGSIb3DQEJARYSbWFzdGVyQHN0YWZmY29w
LnN1MCAXDTE1MDIwNTA3MTkxOVoYDzIwMTUwMjIwMDcxOTE4WjBEMR8wHQYDVQQK
FBZ0cmlhbF8zMjRhZGY0YzM3MGE0YWVjMRUwEwYDVQQDEwwxNzIuMzEuMi4xMzEx
CjAIBgNVBAwTATUwggEiMA0GCSqGSIb3DQEBAQUAA4IBDwAwggEKAoIBAQD4unVj
PDc6Ssdc47BXNuC7Vj6vCWlqoXfwHUPb/619yMa1veWsxJ07rfmKYOvbS5fF3vbA
SUCi/3QOC43XwLKWkT9ttxJ7Deu1PO4D6ZzM53Wa6mpvNZIg+xUrGKOxZRhMG5dH
v2msEtlaOURklIZZS7JU6iVYXJW3Tu5AiXKe4UT6nznbv+E/xP11obV7DyPpxFSg
4L9TNPGOBuhQNRE+obKUn8MG+xMZkqU4VD0jbU4WqaZhIowBS6RI5Vgto1r3TZTr
1eT412we+Cogg0qWk2uYhhYQI/0Q/A6USl95cN8iv24P6Dh+Q1JEiV+FnDSfpPpC
1xDAONhRecFq3395AgMBAAGjgdYwgdMwHQYDVR0OBBYEFJn+zm2Q3XtimGkWJMVE
BLNL3aLgMIGjBgNVHSMEgZswgZiAFKylaJeu/SGTDanGjMRQPGHUHFDYoXWkczBx
MQswCQYDVQQGEwJSVTETMBEGA1UECAwKU29tZS1TdGF0ZTENMAsGA1UECgwEQXRv
bTEbMBkGA1UEAwwSbWFzdGVyLnN0YWZmY29wLnN1MSEwHwYJKoZIhvcNAQkBFhJt
YXN0ZXJAc3RhZmZjb3Auc3WCCQCMzfOAvMx9DTAMBgNVHRMEBTADAQH/MA0GCSqG
SIb3DQEBBQUAA4ICAQCgBWCDgrjh33MbHUi8YmdLVvazRgvIjvDTc25RVj9EFGeW
jlJ4vqhpYwAbyvHvSx0v6SPJnkvwwpc5GSHlgcxZqe5qeoUOudZe4xXOOakYJiAF
5RkSxc1i7qEOaqJcla9sdSF14LANDvJVsY+Tr9iADQgM+kmtPJqj05sN23DkKEtz
U14SA1LY4pufAjSBl0J3Rf+OLsyTbUXxod38fCqK2Ba26VUUnse7Su2j4TKJgS40
a4KrQP7XIeVLGNF6iqcsef0qUAKrvk+hPNfpVkC1yKjrA7zb75YcQ/l1vcZ1OXyS
ovz+ibIWbg1ic9Ow78swPMKOJxHPqQTVqa+i7BufPu053T+eTjWAd4LzSh4V0BA8
uaASLrf+Dwiyc8kvFV5ZggJ4R5mpkroW1KcghS8r8llIVzQQy8VOiNTgWdxO+zGW
s9GPXf7X9Vqq3clt289BGSVNMleRiBWZxV0TScWq90qCB0fUHzodPPuKj5q0kE4Q
HD4CwJrvG8SnekcSs+VYI7yQd1gughwwFWbUzLZRGVdkrpTlfAbVlno/1aFnUSQ0
ZMgWoT7z1SQwVkOjXEyZk6LYSCM0oo9Ftrr1vzQkONMUbWMUuQzrastrQQ5v66Yb
5cXBmCNvkskSUjXyzoLGatSXZiZcn2omG2LJczCa6DQRG3AXBVTD+LlnM+DzFg==
-----END CERTIFICATE-----
